target datalayout = "e-m:e-p270:32:32-p271:32:32-p272:64:64-i64:64-i128:128-f80:128-n8:16:32:64-S128"
target triple = "x86_64-pc-linux-gnu"

%struct.DRBG_internal = type { i32, [55 x i8], [55 x i8], ptr }

; Function Attrs: inlinehint nounwind uwtable
define internal void @ForceZero(ptr noundef %0, i32 noundef %1) #2 {
  %3 = alloca ptr, align 8
  %4 = alloca i32, align 4
  %5 = alloca ptr, align 8
  %6 = alloca ptr, align 8
  %7 = alloca i32, align 4
  store ptr %0, ptr %3, align 8, !tbaa !24
  store i32 %1, ptr %4, align 4, !tbaa !10
  call void @llvm.lifetime.start.p0(i64 8, ptr %5) #6
  %8 = load ptr, ptr %3, align 8, !tbaa !24
  store ptr %8, ptr %5, align 8, !tbaa !8
  call void @llvm.lifetime.start.p0(i64 8, ptr %6) #6
  call void @llvm.lifetime.start.p0(i64 4, ptr %7) #6
  %9 = load ptr, ptr %5, align 8, !tbaa !8
  %10 = ptrtoint ptr %9 to i64
  %11 = and i64 %10, 7
  %12 = sub i64 8, %11
  %13 = and i64 %12, 7
  %14 = trunc i64 %13 to i32
  store i32 %14, ptr %7, align 4, !tbaa !10
  %15 = load i32, ptr %4, align 4, !tbaa !10
  %16 = load i32, ptr %7, align 4, !tbaa !10
  %17 = icmp ult i32 %15, %16
  br i1 %17, label %18, label %20

18:                                               ; preds = %2
  %19 = load i32, ptr %4, align 4, !tbaa !10
  store i32 %19, ptr %7, align 4, !tbaa !10
  br label %20

20:                                               ; preds = %18, %2
  %21 = load i32, ptr %7, align 4, !tbaa !10
  %22 = load i32, ptr %4, align 4, !tbaa !10
  %23 = sub i32 %22, %21
  store i32 %23, ptr %4, align 4, !tbaa !10
  br label %24

24:                                               ; preds = %28, %20
  %25 = load i32, ptr %7, align 4, !tbaa !10
  %26 = add i32 %25, -1
  store i32 %26, ptr %7, align 4, !tbaa !10
  %27 = icmp ne i32 %25, 0
  br i1 %27, label %28, label %31

28:                                               ; preds = %24
  %29 = load ptr, ptr %5, align 8, !tbaa !8
  %30 = getelementptr inbounds nuw i8, ptr %29, i32 1
  store ptr %30, ptr %5, align 8, !tbaa !8
  store volatile i8 0, ptr %29, align 1, !tbaa !22
  br label %24, !llvm.loop !29

31:                                               ; preds = %24
  %32 = load ptr, ptr %5, align 8, !tbaa !8
  store ptr %32, ptr %6, align 8, !tbaa !30
  br label %33

33:                                               ; preds = %40, %31
  %34 = load i32, ptr %4, align 4, !tbaa !10
  %35 = zext i32 %34 to i64
  %36 = icmp uge i64 %35, 8
  br i1 %36, label %37, label %43

37:                                               ; preds = %33
  %38 = load ptr, ptr %6, align 8, !tbaa !30
  %39 = getelementptr inbounds nuw i64, ptr %38, i32 1
  store ptr %39, ptr %6, align 8, !tbaa !30
  store volatile i64 0, ptr %38, align 8, !tbaa !32
  br label %40

40:                                               ; preds = %37
  %41 = load i32, ptr %4, align 4, !tbaa !10
  %42 = sub i32 %41, 8
  store i32 %42, ptr %4, align 4, !tbaa !10
  br label %33, !llvm.loop !34

43:                                               ; preds = %33
  %44 = load ptr, ptr %6, align 8, !tbaa !30
  store ptr %44, ptr %5, align 8, !tbaa !8
  br label %45

45:                                               ; preds = %49, %43
  %46 = load i32, ptr %4, align 4, !tbaa !10
  %47 = add i32 %46, -1
  store i32 %47, ptr %4, align 4, !tbaa !10
  %48 = icmp ne i32 %46, 0
  br i1 %48, label %49, label %52

49:                                               ; preds = %45
  %50 = load ptr, ptr %5, align 8, !tbaa !8
  %51 = getelementptr inbounds nuw i8, ptr %50, i32 1
  store ptr %51, ptr %5, align 8, !tbaa !8
  store volatile i8 0, ptr %50, align 1, !tbaa !22
  br label %45, !llvm.loop !35

52:                                               ; preds = %45
  call void @llvm.lifetime.end.p0(i64 4, ptr %7) #6
  call void @llvm.lifetime.end.p0(i64 8, ptr %6) #6
  call void @llvm.lifetime.end.p0(i64 8, ptr %5) #6
  ret void
}

; Function Attrs: nounwind uwtable
define internal i32 @Hash_DRBG_Uninstantiate(ptr noundef %0) #0 {
  %2 = alloca ptr, align 8
  %3 = alloca i32, align 4
  %4 = alloca i32, align 4
  %5 = alloca ptr, align 8
  store ptr %0, ptr %2, align 8, !tbaa !16
  call void @llvm.lifetime.start.p0(i64 4, ptr %3) #6
  call void @llvm.lifetime.start.p0(i64 4, ptr %4) #6
  store i32 0, ptr %4, align 4, !tbaa !10
  call void @llvm.lifetime.start.p0(i64 8, ptr %5) #6
  %6 = load ptr, ptr %2, align 8, !tbaa !16
  store ptr %6, ptr %5, align 8, !tbaa !8
  %7 = load ptr, ptr %2, align 8, !tbaa !16
  call void @ForceZero(ptr noundef %7, i32 noundef 128)
  store i32 0, ptr %3, align 4, !tbaa !10
  br label %8

8:                                                ; preds = %22, %1
  %9 = load i32, ptr %3, align 4, !tbaa !10
  %10 = zext i32 %9 to i64
  %11 = icmp ult i64 %10, 128
  br i1 %11, label %12, label %25

12:                                               ; preds = %8
  %13 = load ptr, ptr %5, align 8, !tbaa !8
  %14 = load i32, ptr %3, align 4, !tbaa !10
  %15 = zext i32 %14 to i64
  %16 = getelementptr inbounds nuw i8, ptr %13, i64 %15
  %17 = load i8, ptr %16, align 1, !tbaa !22
  %18 = zext i8 %17 to i32
  %19 = xor i32 %18, 0
  %20 = load i32, ptr %4, align 4, !tbaa !10
  %21 = or i32 %20, %19
  store i32 %21, ptr %4, align 4, !tbaa !10
  br label %22

22:                                               ; preds = %12
  %23 = load i32, ptr %3, align 4, !tbaa !10
  %24 = add i32 %23, 1
  store i32 %24, ptr %3, align 4, !tbaa !10
  br label %8, !llvm.loop !40

25:                                               ; preds = %8
  %26 = load i32, ptr %4, align 4, !tbaa !10
  %27 = icmp eq i32 %26, 0
  %28 = select i1 %27, i32 0, i32 1
  call void @llvm.lifetime.end.p0(i64 8, ptr %5) #6
  call void @llvm.lifetime.end.p0(i64 4, ptr %4) #6
  call void @llvm.lifetime.end.p0(i64 4, ptr %3) #6
  ret i32 %28
}

; Function Attrs: nounwind uwtable
define internal i32 @Hash_DRBG_Reseed(ptr noundef %0, ptr noundef %1, i32 noundef %2) #0 {
  %4 = alloca i32, align 4
  %5 = alloca ptr, align 8
  %6 = alloca ptr, align 8
  %7 = alloca i32, align 4
  %8 = alloca i32, align 4
  %9 = alloca [55 x i8], align 16
  %10 = alloca i32, align 4
  store ptr %0, ptr %5, align 8, !tbaa !16
  store ptr %1, ptr %6, align 8, !tbaa !8
  store i32 %2, ptr %7, align 4, !tbaa !10
  call void @llvm.lifetime.start.p0(i64 4, ptr %8) #6
  call void @llvm.lifetime.start.p0(i64 55, ptr %9) #6
  %11 = load ptr, ptr %5, align 8, !tbaa !16
  %12 = icmp eq ptr %11, null
  br i1 %12, label %13, label %14

13:                                               ; preds = %3
  store i32 1, ptr %4, align 4
  store i32 1, ptr %10, align 4
  br label %48

14:                                               ; preds = %3
  %15 = getelementptr inbounds [55 x i8], ptr %9, i64 0, i64 0
  call void @llvm.memset.p0.i64(ptr align 16 %15, i8 0, i64 55, i1 false)
  %16 = load ptr, ptr %5, align 8, !tbaa !16
  %17 = getelementptr inbounds [55 x i8], ptr %9, i64 0, i64 0
  %18 = load ptr, ptr %5, align 8, !tbaa !16
  %19 = getelementptr inbounds nuw %struct.DRBG_internal, ptr %18, i32 0, i32 1
  %20 = getelementptr inbounds [55 x i8], ptr %19, i64 0, i64 0
  %21 = load ptr, ptr %6, align 8, !tbaa !8
  %22 = load i32, ptr %7, align 4, !tbaa !10
  %23 = call i32 @Hash_df(ptr noundef %16, ptr noundef %17, i32 noundef 55, i8 noundef zeroext 1, ptr noundef %20, i32 noundef 55, ptr noundef %21, i32 noundef %22)
  store i32 %23, ptr %8, align 4, !tbaa !10
  %24 = load i32, ptr %8, align 4, !tbaa !10
  %25 = icmp eq i32 %24, 0
  br i1 %25, label %26, label %40

26:                                               ; preds = %14
  %27 = load ptr, ptr %5, align 8, !tbaa !16
  %28 = getelementptr inbounds nuw %struct.DRBG_internal, ptr %27, i32 0, i32 1
  %29 = getelementptr inbounds [55 x i8], ptr %28, i64 0, i64 0
  %30 = getelementptr inbounds [55 x i8], ptr %9, i64 0, i64 0
  call void @llvm.memcpy.p0.p0.i64(ptr align 4 %29, ptr align 16 %30, i64 55, i1 false)
  %31 = getelementptr inbounds [55 x i8], ptr %9, i64 0, i64 0
  call void @ForceZero(ptr noundef %31, i32 noundef 55)
  %32 = load ptr, ptr %5, align 8, !tbaa !16
  %33 = load ptr, ptr %5, align 8, !tbaa !16
  %34 = getelementptr inbounds nuw %struct.DRBG_internal, ptr %33, i32 0, i32 2
  %35 = getelementptr inbounds [55 x i8], ptr %34, i64 0, i64 0
  %36 = load ptr, ptr %5, align 8, !tbaa !16
  %37 = getelementptr inbounds nuw %struct.DRBG_internal, ptr %36, i32 0, i32 1
  %38 = getelementptr inbounds [55 x i8], ptr %37, i64 0, i64 0
  %39 = call i32 @Hash_df(ptr noundef %32, ptr noundef %35, i32 noundef 55, i8 noundef zeroext 0, ptr noundef %38, i32 noundef 55, ptr noundef null, i32 noundef 0)
  store i32 %39, ptr %8, align 4, !tbaa !10
  br label %40

40:                                               ; preds = %26, %14
  %41 = load i32, ptr %8, align 4, !tbaa !10
  %42 = icmp eq i32 %41, 0
  br i1 %42, label %43, label %46

43:                                               ; preds = %40
  %44 = load ptr, ptr %5, align 8, !tbaa !16
  %45 = getelementptr inbounds nuw %struct.DRBG_internal, ptr %44, i32 0, i32 0
  store i32 1, ptr %45, align 8, !tbaa !18
  br label %46

46:                                               ; preds = %43, %40
  %47 = load i32, ptr %8, align 4, !tbaa !10
  store i32 %47, ptr %4, align 4
  store i32 1, ptr %10, align 4
  br label %48

48:                                               ; preds = %46, %13
  call void @llvm.lifetime.end.p0(i64 55, ptr %9) #6
  call void @llvm.lifetime.end.p0(i64 4, ptr %8) #6
  %49 = load i32, ptr %4, align 4
  ret i32 %49
}

; Function Attrs: nounwind uwtable
define internal i32 @Hash_DRBG_Instantiate(ptr noundef %0, ptr noundef %1, i32 noundef %2, ptr noundef %3, i32 noundef %4, ptr noundef %5, i32 noundef %6) #0 {
  %8 = alloca ptr, align 8
  %9 = alloca ptr, align 8
  %10 = alloca i32, align 4
  %11 = alloca ptr, align 8
  %12 = alloca i32, align 4
  %13 = alloca ptr, align 8
  %14 = alloca i32, align 4
  %15 = alloca i32, align 4
  store ptr %0, ptr %8, align 8, !tbaa !16
  store ptr %1, ptr %9, align 8, !tbaa !8
  store i32 %2, ptr %10, align 4, !tbaa !10
  store ptr %3, ptr %11, align 8, !tbaa !8
  store i32 %4, ptr %12, align 4, !tbaa !10
  store ptr %5, ptr %13, align 8, !tbaa !24
  store i32 %6, ptr %14, align 4, !tbaa !10
  call void @llvm.lifetime.start.p0(i64 4, ptr %15) #6
  store i32 1, ptr %15, align 4, !tbaa !10
  %16 = load ptr, ptr %8, align 8, !tbaa !16
  call void @llvm.memset.p0.i64(ptr align 8 %16, i8 0, i64 128, i1 false)
  %17 = load ptr, ptr %13, align 8, !tbaa !24
  %18 = load ptr, ptr %8, align 8, !tbaa !16
  %19 = getelementptr inbounds nuw %struct.DRBG_internal, ptr %18, i32 0, i32 3
  store ptr %17, ptr %19, align 8, !tbaa !41
  %20 = load ptr, ptr %8, align 8, !tbaa !16
  %21 = load ptr, ptr %8, align 8, !tbaa !16
  %22 = getelementptr inbounds nuw %struct.DRBG_internal, ptr %21, i32 0, i32 1
  %23 = getelementptr inbounds [55 x i8], ptr %22, i64 0, i64 0
  %24 = load ptr, ptr %9, align 8, !tbaa !8
  %25 = load i32, ptr %10, align 4, !tbaa !10
  %26 = load ptr, ptr %11, align 8, !tbaa !8
  %27 = load i32, ptr %12, align 4, !tbaa !10
  %28 = call i32 @Hash_df(ptr noundef %20, ptr noundef %23, i32 noundef 55, i8 noundef zeroext 4, ptr noundef %24, i32 noundef %25, ptr noundef %26, i32 noundef %27)
  %29 = icmp eq i32 %28, 0
  br i1 %29, label %30, label %43

30:                                               ; preds = %7
  %31 = load ptr, ptr %8, align 8, !tbaa !16
  %32 = load ptr, ptr %8, align 8, !tbaa !16
  %33 = getelementptr inbounds nuw %struct.DRBG_internal, ptr %32, i32 0, i32 2
  %34 = getelementptr inbounds [55 x i8], ptr %33, i64 0, i64 0
  %35 = load ptr, ptr %8, align 8, !tbaa !16
  %36 = getelementptr inbounds nuw %struct.DRBG_internal, ptr %35, i32 0, i32 1
  %37 = getelementptr inbounds [55 x i8], ptr %36, i64 0, i64 0
  %38 = call i32 @Hash_df(ptr noundef %31, ptr noundef %34, i32 noundef 55, i8 noundef zeroext 0, ptr noundef %37, i32 noundef 55, ptr noundef null, i32 noundef 0)
  %39 = icmp eq i32 %38, 0
  br i1 %39, label %40, label %43

40:                                               ; preds = %30
  %41 = load ptr, ptr %8, align 8, !tbaa !16
  %42 = getelementptr inbounds nuw %struct.DRBG_internal, ptr %41, i32 0, i32 0
  store i32 1, ptr %42, align 8, !tbaa !18
  store i32 0, ptr %15, align 4, !tbaa !10
  br label %43

43:                                               ; preds = %40, %30, %7
  %44 = load i32, ptr %15, align 4, !tbaa !10
  call void @llvm.lifetime.end.p0(i64 4, ptr %15) #6
  ret i32 %44
}

; Function Attrs: nounwind uwtable
define i32 @wc_RNG_HealthTest_ex(i32 noundef %0, ptr noundef %1, i32 noundef %2, ptr noundef %3, i32 noundef %4, ptr noundef %5, i32 noundef %6, ptr noundef %7, i32 noundef %8, ptr noundef %9, i32 noundef %10) #0 {
  %12 = alloca i32, align 4
  %13 = alloca i32, align 4
  %14 = alloca ptr, align 8
  %15 = alloca i32, align 4
  %16 = alloca ptr, align 8
  %17 = alloca i32, align 4
  %18 = alloca ptr, align 8
  %19 = alloca i32, align 4
  %20 = alloca ptr, align 8
  %21 = alloca i32, align 4
  %22 = alloca ptr, align 8
  %23 = alloca i32, align 4
  %24 = alloca i32, align 4
  %25 = alloca ptr, align 8
  %26 = alloca %struct.DRBG_internal, align 8
  %27 = alloca i32, align 4
  store i32 %0, ptr %13, align 4, !tbaa !10
  store ptr %1, ptr %14, align 8, !tbaa !8
  store i32 %2, ptr %15, align 4, !tbaa !10
  store ptr %3, ptr %16, align 8, !tbaa !8
  store i32 %4, ptr %17, align 4, !tbaa !10
  store ptr %5, ptr %18, align 8, !tbaa !8
  store i32 %6, ptr %19, align 4, !tbaa !10
  store ptr %7, ptr %20, align 8, !tbaa !8
  store i32 %8, ptr %21, align 4, !tbaa !10
  store ptr %9, ptr %22, align 8, !tbaa !24
  store i32 %10, ptr %23, align 4, !tbaa !10
  call void @llvm.lifetime.start.p0(i64 4, ptr %24) #6
  store i32 -1, ptr %24, align 4, !tbaa !10
  call void @llvm.lifetime.start.p0(i64 8, ptr %25) #6
  call void @llvm.lifetime.start.p0(i64 128, ptr %26) #6
  %28 = load ptr, ptr %16, align 8, !tbaa !8
  %29 = icmp eq ptr %28, null
  br i1 %29, label %33, label %30

30:                                               ; preds = %11
  %31 = load ptr, ptr %20, align 8, !tbaa !8
  %32 = icmp eq ptr %31, null
  br i1 %32, label %33, label %34

33:                                               ; preds = %30, %11
  store i32 -173, ptr %12, align 4
  store i32 1, ptr %27, align 4
  br label %90

34:                                               ; preds = %30
  %35 = load i32, ptr %13, align 4, !tbaa !10
  %36 = icmp ne i32 %35, 0
  br i1 %36, label %37, label %41

37:                                               ; preds = %34
  %38 = load ptr, ptr %18, align 8, !tbaa !8
  %39 = icmp eq ptr %38, null
  br i1 %39, label %40, label %41

40:                                               ; preds = %37
  store i32 -173, ptr %12, align 4
  store i32 1, ptr %27, align 4
  br label %90

41:                                               ; preds = %37, %34
  %42 = load i32, ptr %21, align 4, !tbaa !10
  %43 = icmp ne i32 %42, 128
  br i1 %43, label %44, label %46

44:                                               ; preds = %41
  %45 = load i32, ptr %24, align 4, !tbaa !10
  store i32 %45, ptr %12, align 4
  store i32 1, ptr %27, align 4
  br label %90

46:                                               ; preds = %41
  store ptr %26, ptr %25, align 8, !tbaa !16
  %47 = load ptr, ptr %25, align 8, !tbaa !16
  %48 = load ptr, ptr %16, align 8, !tbaa !8
  %49 = load i32, ptr %17, align 4, !tbaa !10
  %50 = load ptr, ptr %14, align 8, !tbaa !8
  %51 = load i32, ptr %15, align 4, !tbaa !10
  %52 = load ptr, ptr %22, align 8, !tbaa !24
  %53 = load i32, ptr %23, align 4, !tbaa !10
  %54 = call i32 @Hash_DRBG_Instantiate(ptr noundef %47, ptr noundef %48, i32 noundef %49, ptr noundef %50, i32 noundef %51, ptr noundef %52, i32 noundef %53)
  %55 = icmp ne i32 %54, 0
  br i1 %55, label %56, label %57

56:                                               ; preds = %46
  br label %83

57:                                               ; preds = %46
  %58 = load i32, ptr %13, align 4, !tbaa !10
  %59 = icmp ne i32 %58, 0
  br i1 %59, label %60, label %68

60:                                               ; preds = %57
  %61 = load ptr, ptr %25, align 8, !tbaa !16
  %62 = load ptr, ptr %18, align 8, !tbaa !8
  %63 = load i32, ptr %19, align 4, !tbaa !10
  %64 = call i32 @Hash_DRBG_Reseed(ptr noundef %61, ptr noundef %62, i32 noundef %63)
  %65 = icmp ne i32 %64, 0
  br i1 %65, label %66, label %67

66:                                               ; preds = %60
  br label %83

67:                                               ; preds = %60
  br label %68

68:                                               ; preds = %67, %57
  %69 = load ptr, ptr %25, align 8, !tbaa !16
  %70 = load ptr, ptr %20, align 8, !tbaa !8
  %71 = load i32, ptr %21, align 4, !tbaa !10
  %72 = call i32 @Hash_DRBG_Generate(ptr noundef %69, ptr noundef %70, i32 noundef %71)
  %73 = icmp ne i32 %72, 0
  br i1 %73, label %74, label %75

74:                                               ; preds = %68
  br label %83

75:                                               ; preds = %68
  %76 = load ptr, ptr %25, align 8, !tbaa !16
  %77 = load ptr, ptr %20, align 8, !tbaa !8
  %78 = load i32, ptr %21, align 4, !tbaa !10
  %79 = call i32 @Hash_DRBG_Generate(ptr noundef %76, ptr noundef %77, i32 noundef %78)
  %80 = icmp ne i32 %79, 0
  br i1 %80, label %81, label %82

81:                                               ; preds = %75
  br label %83

82:                                               ; preds = %75
  store i32 0, ptr %24, align 4, !tbaa !10
  br label %83

83:                                               ; preds = %82, %81, %74, %66, %56
  %84 = load ptr, ptr %25, align 8, !tbaa !16
  %85 = call i32 @Hash_DRBG_Uninstantiate(ptr noundef %84)
  %86 = icmp ne i32 %85, 0
  br i1 %86, label %87, label %88

87:                                               ; preds = %83
  store i32 -1, ptr %24, align 4, !tbaa !10
  br label %88

88:                                               ; preds = %87, %83
  %89 = load i32, ptr %24, align 4, !tbaa !10
  store i32 %89, ptr %12, align 4
  store i32 1, ptr %27, align 4
  br label %90

90:                                               ; preds = %88, %44, %40, %33
  call void @llvm.lifetime.end.p0(i64 128, ptr %26) #6
  call void @llvm.lifetime.end.p0(i64 8, ptr %25) #6
  call void @llvm.lifetime.end.p0(i64 4, ptr %24) #6
  %91 = load i32, ptr %12, align 4
  ret i32 %91
}