; Function Attrs: nounwind uwtable
define range(i32 -173, 1) i32 @wc_RNG_HealthTest_ex(i32 noundef %0, ptr noundef %1, i32 noundef %2, ptr noundef %3, i32 noundef %4, ptr noundef %5, i32 noundef %6, ptr noundef writeonly captures(address_is_null) %7, i32 noundef %8, ptr noundef %9, i32 %10) local_unnamed_addr #0 {
  %12 = alloca [55 x i8], align 16
  %13 = alloca %struct.DRBG_internal, align 8
  call void @llvm.lifetime.start.p0(i64 128, ptr nonnull %13) #9
  %14 = icmp eq ptr %3, null
  %15 = icmp eq ptr %7, null
  %or.cond = or i1 %14, %15
  br i1 %or.cond, label %50, label %16

16:                                               ; preds = %11
  %17 = icmp ne i32 %0, 0
  %18 = icmp eq ptr %5, null
  %or.cond3 = and i1 %17, %18
  br i1 %or.cond3, label %50, label %19

19:                                               ; preds = %16
  %.not = icmp eq i32 %8, 128
  br i1 %.not, label %20, label %50

20:                                               ; preds = %19
  call void @llvm.memset.p0.i64(ptr noundef nonnull align 8 dereferenceable(128) %13, i8 0, i64 120, i1 false)
  %21 = getelementptr inbounds nuw i8, ptr %13, i64 120
  store ptr %9, ptr %21, align 8, !tbaa !24
  %22 = getelementptr inbounds nuw i8, ptr %13, i64 4
  %23 = call fastcc i32 @Hash_df(ptr noundef nonnull %13, ptr noundef nonnull %22, i8 noundef zeroext 4, ptr noundef nonnull %3, i32 noundef %4, ptr noundef %1, i32 noundef %2)
  %24 = icmp eq i32 %23, 0
  br i1 %24, label %25, label %.lr.ph29.preheader.i.i38

25:                                               ; preds = %20
  %26 = getelementptr inbounds nuw i8, ptr %13, i64 59
  %27 = call fastcc i32 @Hash_df(ptr noundef nonnull %13, ptr noundef nonnull %26, i8 noundef zeroext 0, ptr noundef nonnull %22, i32 noundef 55, ptr noundef null, i32 noundef 0)
  %28 = icmp eq i32 %27, 0
  br i1 %28, label %29, label %.lr.ph29.preheader.i.i38

29:                                               ; preds = %25
  store i32 1, ptr %13, align 8, !tbaa !17
  br i1 %17, label %30, label %40

30:                                               ; preds = %29
  call void @llvm.lifetime.start.p0(i64 55, ptr nonnull %12) #9
  call void @llvm.memset.p0.i64(ptr noundef nonnull align 16 dereferenceable(55) %12, i8 0, i64 55, i1 false)
  %31 = call fastcc i32 @Hash_df(ptr noundef nonnull %13, ptr noundef nonnull %12, i8 noundef zeroext 1, ptr noundef nonnull %22, i32 noundef 55, ptr noundef %5, i32 noundef %6)
  %32 = icmp eq i32 %31, 0
  br i1 %32, label %.lr.ph29.preheader.i.i, label %Hash_DRBG_Reseed.exit.thread

.lr.ph29.preheader.i.i:                           ; preds = %30
  call void @llvm.memcpy.p0.p0.i64(ptr noundef nonnull align 4 dereferenceable(55) %22, ptr noundef nonnull align 16 dereferenceable(55) %12, i64 55, i1 false)
  br label %.lr.ph29.i.i

.lr.ph29.i.i:                                     ; preds = %.lr.ph29.i.i, %.lr.ph29.preheader.i.i
  %.01528.i.i = phi ptr [ %33, %.lr.ph29.i.i ], [ %12, %.lr.ph29.preheader.i.i ]
  %.01827.i.i = phi i32 [ %34, %.lr.ph29.i.i ], [ 55, %.lr.ph29.preheader.i.i ]
  %33 = getelementptr inbounds nuw i8, ptr %.01528.i.i, i64 8
  store volatile i64 0, ptr %.01528.i.i, align 8, !tbaa !11
  %34 = add nsw i32 %.01827.i.i, -8
  %35 = icmp ugt i32 %34, 7
  br i1 %35, label %.lr.ph29.i.i, label %.lr.ph35.i.i, !llvm.loop !13

.lr.ph35.i.i:                                     ; preds = %.lr.ph29.i.i, %.lr.ph35.i.i
  %.11734.i.i = phi ptr [ %37, %.lr.ph35.i.i ], [ %33, %.lr.ph29.i.i ]
  %.11933.i.i = phi i32 [ %36, %.lr.ph35.i.i ], [ 7, %.lr.ph29.i.i ]
  %36 = add nsw i32 %.11933.i.i, -1
  %37 = getelementptr inbounds nuw i8, ptr %.11734.i.i, i64 1
  store volatile i8 0, ptr %.11734.i.i, align 1, !tbaa !15
  %.not22.i.i = icmp eq i32 %36, 0
  br i1 %.not22.i.i, label %.loopexit.i, label %.lr.ph35.i.i, !llvm.loop !16

.loopexit.i:                                      ; preds = %.lr.ph35.i.i
  %38 = call fastcc i32 @Hash_df(ptr noundef nonnull %13, ptr noundef nonnull %26, i8 noundef zeroext 0, ptr noundef nonnull %22, i32 noundef 55, ptr noundef null, i32 noundef 0)
  %39 = icmp eq i32 %38, 0
  br i1 %39, label %Hash_DRBG_Reseed.exit, label %Hash_DRBG_Reseed.exit.thread

Hash_DRBG_Reseed.exit.thread:                     ; preds = %.loopexit.i, %30
  call void @llvm.lifetime.end.p0(i64 55, ptr nonnull %12) #9
  br label %.lr.ph29.preheader.i.i38

Hash_DRBG_Reseed.exit:                            ; preds = %.loopexit.i
  store i32 1, ptr %13, align 8, !tbaa !17
  call void @llvm.lifetime.end.p0(i64 55, ptr nonnull %12) #9
  br label %40

40:                                               ; preds = %Hash_DRBG_Reseed.exit, %29
  %41 = call fastcc i32 @Hash_DRBG_Generate(ptr noundef nonnull %13, ptr noundef %7, i32 noundef 128)
  %.not34 = icmp eq i32 %41, 0
  br i1 %.not34, label %42, label %.lr.ph29.preheader.i.i38

42:                                               ; preds = %40
  %43 = call fastcc i32 @Hash_DRBG_Generate(ptr noundef nonnull %13, ptr noundef %7, i32 noundef 128)
  %.not35 = icmp ne i32 %43, 0
  %spec.select = sext i1 %.not35 to i32
  br label %.lr.ph29.preheader.i.i38

.lr.ph29.preheader.i.i38:                         ; preds = %40, %42, %Hash_DRBG_Reseed.exit.thread, %25, %20
  %.028 = phi i32 [ -1, %40 ], [ %spec.select, %42 ], [ -1, %Hash_DRBG_Reseed.exit.thread ], [ -1, %25 ], [ -1, %20 ]
  br label %.lr.ph29.i.i39

.lr.ph29.i.i39:                                   ; preds = %.lr.ph29.i.i39, %.lr.ph29.preheader.i.i38
  %.01528.i.i40 = phi ptr [ %44, %.lr.ph29.i.i39 ], [ %13, %.lr.ph29.preheader.i.i38 ]
  %.01827.i.i41 = phi i32 [ %45, %.lr.ph29.i.i39 ], [ 128, %.lr.ph29.preheader.i.i38 ]
  %44 = getelementptr inbounds nuw i8, ptr %.01528.i.i40, i64 8
  store volatile i64 0, ptr %.01528.i.i40, align 8, !tbaa !11
  %45 = add nsw i32 %.01827.i.i41, -8
  %.not50 = icmp eq i32 %45, 0
  br i1 %.not50, label %ForceZero.exit.i, label %.lr.ph29.i.i39, !llvm.loop !13

ForceZero.exit.i:                                 ; preds = %.lr.ph29.i.i39, %ForceZero.exit.i
  %indvars.iv.i = phi i64 [ %indvars.iv.next.i, %ForceZero.exit.i ], [ 0, %.lr.ph29.i.i39 ]
  %.0711.i = phi i32 [ %49, %ForceZero.exit.i ], [ 0, %.lr.ph29.i.i39 ]
  %46 = getelementptr inbounds nuw i8, ptr %13, i64 %indvars.iv.i
  %47 = load i8, ptr %46, align 1, !tbaa !15
  %48 = zext i8 %47 to i32
  %49 = or i32 %.0711.i, %48
  %indvars.iv.next.i = add nuw nsw i64 %indvars.iv.i, 1
  %exitcond.not.i = icmp eq i64 %indvars.iv.next.i, 128
  br i1 %exitcond.not.i, label %Hash_DRBG_Uninstantiate.exit, label %ForceZero.exit.i, !llvm.loop !28

Hash_DRBG_Uninstantiate.exit:                     ; preds = %ForceZero.exit.i
  %.not51 = icmp eq i32 %49, 0
  %spec.select37 = select i1 %.not51, i32 %.028, i32 -1
  br label %50

50:                                               ; preds = %19, %16, %11, %Hash_DRBG_Uninstantiate.exit
  %.0 = phi i32 [ %spec.select37, %Hash_DRBG_Uninstantiate.exit ], [ -173, %11 ], [ -173, %16 ], [ -1, %19 ]
  call void @llvm.lifetime.end.p0(i64 128, ptr nonnull %13) #9
  ret i32 %.0
}